target datalayout = "e-m:e-p270:32:32-p271:32:32-p272:64:64-i64:64-i128:128-f80:128-n8:16:32:64-S128"
target triple = "x86_64-pc-linux-gnu"

%struct.strbuf = type { i64, i64, ptr }
%struct.trace_key = type { ptr, i32, i8 }

@.str = private unnamed_addr constant [7 x i8] c"http.c\00", align 1
@strbuf_slopbuf = external global [0 x i8], align 1
@trace_curl = internal global { ptr, i32, i8, [3 x i8] } { ptr @.str.57, i32 0, i8 0, [3 x i8] zeroinitializer }, align 8
@.str.76 = private unnamed_addr constant [11 x i8] c"./strbuf.h\00", align 1
@.str.77 = private unnamed_addr constant [30 x i8] c"strbuf_setlen() beyond buffer\00", align 1
@.str.78 = private unnamed_addr constant [31 x i8] c"%s, %10.10ld bytes (0x%8.8lx)\0A\00", align 1
@__const.curl_dump_data.out = private unnamed_addr constant %struct.strbuf { i64 0, i64 0, ptr @strbuf_slopbuf }, align 8
@.str.80 = private unnamed_addr constant [5 x i8] c"%s: \00", align 1

; Function Attrs: inlinehint nounwind uwtable
define internal i64 @strbuf_avail(ptr noundef %0) #5 {
  %2 = alloca ptr, align 8
  store ptr %0, ptr %2, align 8, !tbaa !21
  %3 = load ptr, ptr %2, align 8, !tbaa !21
  %4 = getelementptr inbounds nuw %struct.strbuf, ptr %3, i32 0, i32 0
  %5 = load i64, ptr %4, align 8, !tbaa !249
  %6 = icmp ne i64 %5, 0
  br i1 %6, label %7, label %16

7:                                                ; preds = %1
  %8 = load ptr, ptr %2, align 8, !tbaa !21
  %9 = getelementptr inbounds nuw %struct.strbuf, ptr %8, i32 0, i32 0
  %10 = load i64, ptr %9, align 8, !tbaa !249
  %11 = load ptr, ptr %2, align 8, !tbaa !21
  %12 = getelementptr inbounds nuw %struct.strbuf, ptr %11, i32 0, i32 1
  %13 = load i64, ptr %12, align 8, !tbaa !142
  %14 = sub i64 %10, %13
  %15 = sub i64 %14, 1
  br label %17

16:                                               ; preds = %1
  br label %17

17:                                               ; preds = %16, %7
  %18 = phi i64 [ %15, %7 ], [ 0, %16 ]
  ret i64 %18
}

; Function Attrs: inlinehint nounwind uwtable
define internal void @strbuf_addch(ptr noundef %0, i32 noundef %1) #5 {
  %3 = alloca ptr, align 8
  %4 = alloca i32, align 4
  store ptr %0, ptr %3, align 8, !tbaa !21
  store i32 %1, ptr %4, align 4, !tbaa !19
  %5 = load ptr, ptr %3, align 8, !tbaa !21
  %6 = call i64 @strbuf_avail(ptr noundef %5)
  %7 = icmp ne i64 %6, 0
  br i1 %7, label %10, label %8

8:                                                ; preds = %2
  %9 = load ptr, ptr %3, align 8, !tbaa !21
  call void @strbuf_grow(ptr noundef %9, i64 noundef 1)
  br label %10

10:                                               ; preds = %8, %2
  %11 = load i32, ptr %4, align 4, !tbaa !19
  %12 = trunc i32 %11 to i8
  %13 = load ptr, ptr %3, align 8, !tbaa !21
  %14 = getelementptr inbounds nuw %struct.strbuf, ptr %13, i32 0, i32 2
  %15 = load ptr, ptr %14, align 8, !tbaa !35
  %16 = load ptr, ptr %3, align 8, !tbaa !21
  %17 = getelementptr inbounds nuw %struct.strbuf, ptr %16, i32 0, i32 1
  %18 = load i64, ptr %17, align 8, !tbaa !142
  %19 = add i64 %18, 1
  store i64 %19, ptr %17, align 8, !tbaa !142
  %20 = getelementptr inbounds nuw i8, ptr %15, i64 %18
  store i8 %12, ptr %20, align 1, !tbaa !65
  %21 = load ptr, ptr %3, align 8, !tbaa !21
  %22 = getelementptr inbounds nuw %struct.strbuf, ptr %21, i32 0, i32 2
  %23 = load ptr, ptr %22, align 8, !tbaa !35
  %24 = load ptr, ptr %3, align 8, !tbaa !21
  %25 = getelementptr inbounds nuw %struct.strbuf, ptr %24, i32 0, i32 1
  %26 = load i64, ptr %25, align 8, !tbaa !142
  %27 = getelementptr inbounds nuw i8, ptr %23, i64 %26
  store i8 0, ptr %27, align 1, !tbaa !65
  ret void
}

; Function Attrs: inlinehint nounwind uwtable
define internal void @strbuf_setlen(ptr noundef %0, i64 noundef %1) #5 {
  %3 = alloca ptr, align 8
  %4 = alloca i64, align 8
  store ptr %0, ptr %3, align 8, !tbaa !21
  store i64 %1, ptr %4, align 8, !tbaa !9
  %5 = load i64, ptr %4, align 8, !tbaa !9
  %6 = load ptr, ptr %3, align 8, !tbaa !21
  %7 = getelementptr inbounds nuw %struct.strbuf, ptr %6, i32 0, i32 0
  %8 = load i64, ptr %7, align 8, !tbaa !249
  %9 = icmp ne i64 %8, 0
  br i1 %9, label %10, label %15

10:                                               ; preds = %2
  %11 = load ptr, ptr %3, align 8, !tbaa !21
  %12 = getelementptr inbounds nuw %struct.strbuf, ptr %11, i32 0, i32 0
  %13 = load i64, ptr %12, align 8, !tbaa !249
  %14 = sub i64 %13, 1
  br label %16

15:                                               ; preds = %2
  br label %16

16:                                               ; preds = %15, %10
  %17 = phi i64 [ %14, %10 ], [ 0, %15 ]
  %18 = icmp ugt i64 %5, %17
  br i1 %18, label %19, label %20

19:                                               ; preds = %16
  call void (ptr, i32, ptr, ...) @BUG_fl(ptr noundef @.str.76, i32 noundef 167, ptr noundef @.str.77) #12
  unreachable

20:                                               ; preds = %16
  %21 = load i64, ptr %4, align 8, !tbaa !9
  %22 = load ptr, ptr %3, align 8, !tbaa !21
  %23 = getelementptr inbounds nuw %struct.strbuf, ptr %22, i32 0, i32 1
  store i64 %21, ptr %23, align 8, !tbaa !142
  %24 = load ptr, ptr %3, align 8, !tbaa !21
  %25 = getelementptr inbounds nuw %struct.strbuf, ptr %24, i32 0, i32 2
  %26 = load ptr, ptr %25, align 8, !tbaa !35
  %27 = icmp ne ptr %26, @strbuf_slopbuf
  br i1 %27, label %28, label %34

28:                                               ; preds = %20
  %29 = load ptr, ptr %3, align 8, !tbaa !21
  %30 = getelementptr inbounds nuw %struct.strbuf, ptr %29, i32 0, i32 2
  %31 = load ptr, ptr %30, align 8, !tbaa !35
  %32 = load i64, ptr %4, align 8, !tbaa !9
  %33 = getelementptr inbounds nuw i8, ptr %31, i64 %32
  store i8 0, ptr %33, align 1, !tbaa !65
  br label %35

34:                                               ; preds = %20
  br label %35

35:                                               ; preds = %34, %28
  ret void
}

; Function Attrs: inlinehint nounwind uwtable
define internal i32 @trace_pass_fl(ptr noundef %0) #5 {
  %2 = alloca ptr, align 8
  store ptr %0, ptr %2, align 8, !tbaa !239
  %3 = load ptr, ptr %2, align 8, !tbaa !239
  %4 = getelementptr inbounds nuw %struct.trace_key, ptr %3, i32 0, i32 1
  %5 = load i32, ptr %4, align 8, !tbaa !241
  %6 = icmp ne i32 %5, 0
  br i1 %6, label %15, label %7

7:                                                ; preds = %1
  %8 = load ptr, ptr %2, align 8, !tbaa !239
  %9 = getelementptr inbounds nuw %struct.trace_key, ptr %8, i32 0, i32 2
  %10 = load i8, ptr %9, align 4
  %11 = and i8 %10, 1
  %12 = zext i8 %11 to i32
  %13 = icmp ne i32 %12, 0
  %14 = xor i1 %13, true
  br label %15

15:                                               ; preds = %7, %1
  %16 = phi i1 [ true, %1 ], [ %14, %7 ]
  %17 = zext i1 %16 to i32
  ret i32 %17
}

; Function Attrs: nounwind uwtable
define internal void @curl_dump_data(ptr noundef %0, ptr noundef %1, i64 noundef %2) #0 {
  %4 = alloca ptr, align 8
  %5 = alloca ptr, align 8
  %6 = alloca i64, align 8
  %7 = alloca i64, align 8
  %8 = alloca %struct.strbuf, align 8
  %9 = alloca i32, align 4
  %10 = alloca i64, align 8
  %11 = alloca i8, align 1
  store ptr %0, ptr %4, align 8, !tbaa !4
  store ptr %1, ptr %5, align 8, !tbaa !4
  store i64 %2, ptr %6, align 8, !tbaa !9
  call void @llvm.lifetime.start.p0(i64 8, ptr %7) #11
  call void @llvm.lifetime.start.p0(i64 24, ptr %8) #11
  call void @llvm.memcpy.p0.p0.i64(ptr align 8 %8, ptr align 8 @__const.curl_dump_data.out, i64 24, i1 false)
  call void @llvm.lifetime.start.p0(i64 4, ptr %9) #11
  store i32 60, ptr %9, align 4, !tbaa !19
  %12 = load ptr, ptr %4, align 8, !tbaa !4
  %13 = load i64, ptr %6, align 8, !tbaa !9
  %14 = load i64, ptr %6, align 8, !tbaa !9
  call void (ptr, ptr, ...) @strbuf_addf(ptr noundef %8, ptr noundef @.str.78, ptr noundef %12, i64 noundef %13, i64 noundef %14)
  br label %15

15:                                               ; preds = %3
  %16 = call i32 @trace_pass_fl(ptr noundef @trace_curl)
  %17 = icmp ne i32 %16, 0
  br i1 %17, label %18, label %19

18:                                               ; preds = %15
  call void @trace_strbuf_fl(ptr noundef @.str, i32 noundef 851, ptr noundef @trace_curl, ptr noundef %8)
  br label %19

19:                                               ; preds = %18, %15
  br label %20

20:                                               ; preds = %19
  br label %21

21:                                               ; preds = %20
  store i64 0, ptr %7, align 8, !tbaa !9
  br label %22

22:                                               ; preds = %72, %21
  %23 = load i64, ptr %7, align 8, !tbaa !9
  %24 = load i64, ptr %6, align 8, !tbaa !9
  %25 = icmp ult i64 %23, %24
  br i1 %25, label %26, label %77

26:                                               ; preds = %22
  call void @llvm.lifetime.start.p0(i64 8, ptr %10) #11
  call void @strbuf_setlen(ptr noundef %8, i64 noundef 0)
  %27 = load ptr, ptr %4, align 8, !tbaa !4
  call void (ptr, ptr, ...) @strbuf_addf(ptr noundef %8, ptr noundef @.str.80, ptr noundef %27)
  store i64 0, ptr %10, align 8, !tbaa !9
  br label %28

28:                                               ; preds = %61, %26
  %29 = load i64, ptr %10, align 8, !tbaa !9
  %30 = load i32, ptr %9, align 4, !tbaa !19
  %31 = zext i32 %30 to i64
  %32 = icmp ult i64 %29, %31
  br i1 %32, label %33, label %39

33:                                               ; preds = %28
  %34 = load i64, ptr %7, align 8, !tbaa !9
  %35 = load i64, ptr %10, align 8, !tbaa !9
  %36 = add i64 %34, %35
  %37 = load i64, ptr %6, align 8, !tbaa !9
  %38 = icmp ult i64 %36, %37
  br label %39

39:                                               ; preds = %33, %28
  %40 = phi i1 [ false, %28 ], [ %38, %33 ]
  br i1 %40, label %41, label %64

41:                                               ; preds = %39
  call void @llvm.lifetime.start.p0(i64 1, ptr %11) #11
  %42 = load ptr, ptr %5, align 8, !tbaa !4
  %43 = load i64, ptr %7, align 8, !tbaa !9
  %44 = load i64, ptr %10, align 8, !tbaa !9
  %45 = add i64 %43, %44
  %46 = getelementptr inbounds nuw i8, ptr %42, i64 %45
  %47 = load i8, ptr %46, align 1, !tbaa !65
  store i8 %47, ptr %11, align 1, !tbaa !65
  %48 = load i8, ptr %11, align 1, !tbaa !65
  %49 = zext i8 %48 to i32
  %50 = icmp sge i32 %49, 32
  br i1 %50, label %51, label %58

51:                                               ; preds = %41
  %52 = load i8, ptr %11, align 1, !tbaa !65
  %53 = zext i8 %52 to i32
  %54 = icmp slt i32 %53, 128
  br i1 %54, label %55, label %58

55:                                               ; preds = %51
  %56 = load i8, ptr %11, align 1, !tbaa !65
  %57 = zext i8 %56 to i32
  br label %59

58:                                               ; preds = %51, %41
  br label %59

59:                                               ; preds = %58, %55
  %60 = phi i32 [ %57, %55 ], [ 46, %58 ]
  call void @strbuf_addch(ptr noundef %8, i32 noundef %60)
  call void @llvm.lifetime.end.p0(i64 1, ptr %11) #11
  br label %61

61:                                               ; preds = %59
  %62 = load i64, ptr %10, align 8, !tbaa !9
  %63 = add i64 %62, 1
  store i64 %63, ptr %10, align 8, !tbaa !9
  br label %28, !llvm.loop !237

64:                                               ; preds = %39
  call void @strbuf_addch(ptr noundef %8, i32 noundef 10)
  br label %65

65:                                               ; preds = %64
  %66 = call i32 @trace_pass_fl(ptr noundef @trace_curl)
  %67 = icmp ne i32 %66, 0
  br i1 %67, label %68, label %69

68:                                               ; preds = %65
  call void @trace_strbuf_fl(ptr noundef @.str, i32 noundef 866, ptr noundef @trace_curl, ptr noundef %8)
  br label %69

69:                                               ; preds = %68, %65
  br label %70

70:                                               ; preds = %69
  br label %71

71:                                               ; preds = %70
  call void @llvm.lifetime.end.p0(i64 8, ptr %10) #11
  br label %72

72:                                               ; preds = %71
  %73 = load i32, ptr %9, align 4, !tbaa !19
  %74 = zext i32 %73 to i64
  %75 = load i64, ptr %7, align 8, !tbaa !9
  %76 = add i64 %75, %74
  store i64 %76, ptr %7, align 8, !tbaa !9
  br label %22, !llvm.loop !238

77:                                               ; preds = %22
  call void @strbuf_release(ptr noundef %8)
  call void @llvm.lifetime.end.p0(i64 4, ptr %9) #11
  call void @llvm.lifetime.end.p0(i64 24, ptr %8) #11
  call void @llvm.lifetime.end.p0(i64 8, ptr %7) #11
  ret void
}