; Function Attrs: nounwind uwtable
define internal fastcc void @curl_dump_data(ptr noundef %0, ptr noundef readonly captures(none) %1, i64 noundef %2) unnamed_addr #3 {
  %4 = alloca %struct.strbuf, align 8
  call void @llvm.lifetime.start.p0(i64 24, ptr nonnull %4) #22
  call void @llvm.memcpy.p0.p0.i64(ptr noundef nonnull align 8 dereferenceable(24) %4, ptr noundef nonnull align 8 dereferenceable(24) @__const.fetch_pack_index.buf, i64 24, i1 false)
  call void (ptr, ptr, ...) @strbuf_addf(ptr noundef nonnull %4, ptr noundef nonnull @.str.78, ptr noundef %0, i64 noundef %2, i64 noundef %2) #22
  %5 = load i32, ptr getelementptr inbounds nuw (i8, ptr @trace_curl, i64 8), align 8, !tbaa !31
  %.not.i = icmp eq i32 %5, 0
  %6 = load i8, ptr getelementptr inbounds nuw (i8, ptr @trace_curl, i64 12), align 4
  %7 = and i8 %6, 1
  %.not37 = icmp ne i8 %7, 0
  %.not = select i1 %.not.i, i1 %.not37, i1 false
  br i1 %.not, label %9, label %8

8:                                                ; preds = %3
  call void @trace_strbuf_fl(ptr noundef nonnull @.str, i32 noundef 851, ptr noundef nonnull @trace_curl, ptr noundef nonnull %4) #22
  br label %9

9:                                                ; preds = %8, %3
  %.not41 = icmp eq i64 %2, 0
  br i1 %.not41, label %._crit_edge, label %.lr.ph

.lr.ph:                                           ; preds = %9
  %10 = getelementptr inbounds nuw i8, ptr %4, i64 8
  %11 = getelementptr inbounds nuw i8, ptr %4, i64 16
  br label %12

12:                                               ; preds = %.lr.ph, %42
  %.040 = phi i64 [ 0, %.lr.ph ], [ %43, %42 ]
  store i64 0, ptr %10, align 8, !tbaa !30
  %13 = load ptr, ptr %11, align 8, !tbaa !23
  %.not9.i = icmp eq ptr %13, @strbuf_slopbuf
  br i1 %.not9.i, label %strbuf_setlen.exit, label %14

14:                                               ; preds = %12
  store i8 0, ptr %13, align 1, !tbaa !24
  br label %strbuf_setlen.exit

strbuf_setlen.exit:                               ; preds = %12, %14
  call void (ptr, ptr, ...) @strbuf_addf(ptr noundef nonnull %4, ptr noundef nonnull @.str.80, ptr noundef %0) #22
  br label %15

15:                                               ; preds = %strbuf_setlen.exit, %strbuf_addch.exit
  %.02139 = phi i64 [ 0, %strbuf_setlen.exit ], [ %29, %strbuf_addch.exit ]
  %16 = add nuw i64 %.02139, %.040
  %17 = icmp ult i64 %16, %2
  br i1 %17, label %18, label %.critedge

18:                                               ; preds = %15
  %19 = getelementptr inbounds nuw i8, ptr %1, i64 %16
  %20 = load i8, ptr %19, align 1, !tbaa !24
  %or.cond = icmp sgt i8 %20, 31
  %narrow = select i1 %or.cond, i8 %20, i8 46
  %21 = load i64, ptr %4, align 8, !tbaa !29
  %.not.i.i = icmp eq i64 %21, 0
  br i1 %.not.i.i, label %strbuf_avail.exit.thread.i, label %strbuf_avail.exit.i

strbuf_avail.exit.i:                              ; preds = %18
  %22 = load i64, ptr %10, align 8, !tbaa !30
  %.neg.i = add i64 %22, 1
  %.not.i25 = icmp eq i64 %21, %.neg.i
  br i1 %.not.i25, label %strbuf_avail.exit.thread.i, label %strbuf_addch.exit

strbuf_avail.exit.thread.i:                       ; preds = %strbuf_avail.exit.i, %18
  call void @strbuf_grow(ptr noundef nonnull %4, i64 noundef 1) #22
  %.pre.i = load i64, ptr %10, align 8, !tbaa !30
  %.pre7.i = add i64 %.pre.i, 1
  br label %strbuf_addch.exit

strbuf_addch.exit:                                ; preds = %strbuf_avail.exit.i, %strbuf_avail.exit.thread.i
  %.pre-phi.i = phi i64 [ %.pre7.i, %strbuf_avail.exit.thread.i ], [ %.neg.i, %strbuf_avail.exit.i ]
  %23 = phi i64 [ %.pre.i, %strbuf_avail.exit.thread.i ], [ %22, %strbuf_avail.exit.i ]
  %24 = load ptr, ptr %11, align 8, !tbaa !23
  store i64 %.pre-phi.i, ptr %10, align 8, !tbaa !30
  %25 = getelementptr inbounds nuw i8, ptr %24, i64 %23
  store i8 %narrow, ptr %25, align 1, !tbaa !24
  %26 = load ptr, ptr %11, align 8, !tbaa !23
  %27 = load i64, ptr %10, align 8, !tbaa !30
  %28 = getelementptr inbounds nuw i8, ptr %26, i64 %27
  store i8 0, ptr %28, align 1, !tbaa !24
  %29 = add nuw nsw i64 %.02139, 1
  %exitcond.not = icmp eq i64 %29, 60
  br i1 %exitcond.not, label %.critedge, label %15, !llvm.loop !205

.critedge:                                        ; preds = %strbuf_addch.exit, %15
  %30 = load i64, ptr %4, align 8, !tbaa !29
  %.not.i.i26 = icmp eq i64 %30, 0
  br i1 %.not.i.i26, label %strbuf_avail.exit.thread.i31, label %strbuf_avail.exit.i27

strbuf_avail.exit.i27:                            ; preds = %.critedge
  %31 = load i64, ptr %10, align 8, !tbaa !30
  %.neg.i28 = add i64 %31, 1
  %.not.i29 = icmp eq i64 %30, %.neg.i28
  br i1 %.not.i29, label %strbuf_avail.exit.thread.i31, label %strbuf_addch.exit35

strbuf_avail.exit.thread.i31:                     ; preds = %strbuf_avail.exit.i27, %.critedge
  call void @strbuf_grow(ptr noundef nonnull %4, i64 noundef 1) #22
  %.pre.i33 = load i64, ptr %10, align 8, !tbaa !30
  %.pre7.i34 = add i64 %.pre.i33, 1
  br label %strbuf_addch.exit35

strbuf_addch.exit35:                              ; preds = %strbuf_avail.exit.i27, %strbuf_avail.exit.thread.i31
  %.pre-phi.i30 = phi i64 [ %.pre7.i34, %strbuf_avail.exit.thread.i31 ], [ %.neg.i28, %strbuf_avail.exit.i27 ]
  %32 = phi i64 [ %.pre.i33, %strbuf_avail.exit.thread.i31 ], [ %31, %strbuf_avail.exit.i27 ]
  %33 = load ptr, ptr %11, align 8, !tbaa !23
  store i64 %.pre-phi.i30, ptr %10, align 8, !tbaa !30
  %34 = getelementptr inbounds nuw i8, ptr %33, i64 %32
  store i8 10, ptr %34, align 1, !tbaa !24
  %35 = load ptr, ptr %11, align 8, !tbaa !23
  %36 = load i64, ptr %10, align 8, !tbaa !30
  %37 = getelementptr inbounds nuw i8, ptr %35, i64 %36
  store i8 0, ptr %37, align 1, !tbaa !24
  %38 = load i32, ptr getelementptr inbounds nuw (i8, ptr @trace_curl, i64 8), align 8, !tbaa !31
  %.not.i36 = icmp eq i32 %38, 0
  %39 = load i8, ptr getelementptr inbounds nuw (i8, ptr @trace_curl, i64 12), align 4
  %40 = and i8 %39, 1
  %.not2438 = icmp ne i8 %40, 0
  %.not24 = select i1 %.not.i36, i1 %.not2438, i1 false
  br i1 %.not24, label %42, label %41

41:                                               ; preds = %strbuf_addch.exit35
  call void @trace_strbuf_fl(ptr noundef nonnull @.str, i32 noundef 866, ptr noundef nonnull @trace_curl, ptr noundef nonnull %4) #22
  br label %42

42:                                               ; preds = %41, %strbuf_addch.exit35
  %43 = add i64 %.040, 60
  %44 = icmp ult i64 %43, %2
  br i1 %44, label %12, label %._crit_edge, !llvm.loop !206

._crit_edge:                                      ; preds = %42, %9
  call void @strbuf_release(ptr noundef nonnull %4) #22
  call void @llvm.lifetime.end.p0(i64 24, ptr nonnull %4) #22
  ret void
}